target datalayout = "e-m:e-p270:32:32-p271:32:32-p272:64:64-i64:64-i128:128-f80:128-n8:16:32:64-S128"
target triple = "x86_64-pc-linux-gnu"

%struct.acn_pdu_offsets = type { i32, i32, i32, i32, i32 }
%struct._packet_info = type { ptr, ptr, i32, i32, %struct.nstime_t, %struct.nstime_t, %struct.nstime_t, i8, ptr, ptr, ptr, ptr, %struct._address, %struct._address, %struct._address, %struct._address, %struct._address, %struct._address, i32, ptr, i8, [3 x i8], %struct.anon, i32, i32, i32, i32, ptr, i8, ptr, ptr, i16, i16, i32, i32, i16, i32, i32, ptr, ptr, ptr, i8, i8, i16, i16, i16, i32, i16, i16, ptr, ptr, ptr, ptr, ptr, i32, i32 }
%struct.nstime_t = type { i64, i32 }
%struct._address = type { i32, i32, ptr, ptr }
%struct.anon = type { i8, [3 x i8] }

@hf_rdmnet_packet_identifier = internal global i32 0, align 4
@hf_rdmnet_postamble_size = internal global i32 0, align 4
@hf_rdmnet_preamble_size = internal global i32 0, align 4
@hf_rdmnet_tcp_length = internal global i32 0, align 4
@ett_rdmnet = internal global i32 0, align 4
@.str.445 = private unnamed_addr constant [7 x i8] c"RDMnet\00", align 1
@proto_rdmnet = internal global i32 0, align 4
@.str.1918 = private unnamed_addr constant [36 x i8] c"RDMnet [Src Port: %d, Dst Port: %d]\00", align 1

; Function Attrs: null_pointer_is_valid sspstrong uwtable
define internal i32 @dissect_rdmnet(ptr noundef %0, ptr noundef %1, ptr noundef %2, i32 noundef %3, i1 noundef zeroext %4) #0 {
  %6 = alloca ptr, align 8
  %7 = alloca ptr, align 8
  %8 = alloca ptr, align 8
  %9 = alloca i32, align 4
  %10 = alloca i8, align 1
  %11 = alloca ptr, align 8
  %12 = alloca ptr, align 8
  %13 = alloca i32, align 4
  %14 = alloca i32, align 4
  %15 = alloca i32, align 4
  %16 = alloca %struct.acn_pdu_offsets, align 4
  store ptr %0, ptr %6, align 8
  store ptr %1, ptr %7, align 8
  store ptr %2, ptr %8, align 8
  store i32 %3, ptr %9, align 4
  %17 = zext i1 %4 to i8
  store i8 %17, ptr %10, align 1
  call void @llvm.lifetime.start.p0(i64 8, ptr %11) #7
  call void @llvm.lifetime.start.p0(i64 8, ptr %12) #7
  call void @llvm.lifetime.start.p0(i64 4, ptr %13) #7
  call void @llvm.lifetime.start.p0(i64 4, ptr %14) #7
  call void @llvm.lifetime.start.p0(i64 4, ptr %15) #7
  call void @llvm.lifetime.start.p0(i64 20, ptr %16) #7
  call void @llvm.memset.p0.i64(ptr align 4 %16, i8 0, i64 20, i1 false)
  %18 = load ptr, ptr %7, align 8
  %19 = getelementptr inbounds nuw %struct._packet_info, ptr %18, i32 0, i32 1
  %20 = load ptr, ptr %19, align 8
  call void @col_set_str(ptr noundef %20, i32 noundef 35, ptr noundef @.str.445)
  %21 = load ptr, ptr %7, align 8
  %22 = getelementptr inbounds nuw %struct._packet_info, ptr %21, i32 0, i32 1
  %23 = load ptr, ptr %22, align 8
  %24 = load ptr, ptr %7, align 8
  %25 = getelementptr inbounds nuw %struct._packet_info, ptr %24, i32 0, i32 24
  %26 = load i32, ptr %25, align 4
  %27 = load ptr, ptr %7, align 8
  %28 = getelementptr inbounds nuw %struct._packet_info, ptr %27, i32 0, i32 25
  %29 = load i32, ptr %28, align 8
  call void (ptr, i32, ptr, ...) @col_add_fstr(ptr noundef %23, i32 noundef 25, ptr noundef @.str.1918, i32 noundef %26, i32 noundef %29)
  %30 = load i8, ptr %10, align 1, !range !9, !noundef !10
  %31 = trunc i8 %30 to i1
  br i1 %31, label %32, label %38

32:                                               ; preds = %5
  %33 = load ptr, ptr %8, align 8
  %34 = load i32, ptr @proto_rdmnet, align 4
  %35 = load ptr, ptr %6, align 8
  %36 = load i32, ptr %9, align 4
  %37 = call ptr @proto_tree_add_item(ptr noundef %33, i32 noundef %34, ptr noundef %35, i32 noundef %36, i32 noundef -1, i32 noundef 0)
  store ptr %37, ptr %11, align 8
  br label %48

38:                                               ; preds = %5
  %39 = load ptr, ptr %6, align 8
  %40 = call i32 @tvb_get_ntohl(ptr noundef %39, i32 noundef 12)
  %41 = add i32 %40, 16
  store i32 %41, ptr %15, align 4
  %42 = load ptr, ptr %8, align 8
  %43 = load i32, ptr @proto_rdmnet, align 4
  %44 = load ptr, ptr %6, align 8
  %45 = load i32, ptr %9, align 4
  %46 = load i32, ptr %15, align 4
  %47 = call ptr @proto_tree_add_item(ptr noundef %42, i32 noundef %43, ptr noundef %44, i32 noundef %45, i32 noundef %46, i32 noundef 0)
  store ptr %47, ptr %11, align 8
  br label %48

48:                                               ; preds = %38, %32
  %49 = load ptr, ptr %11, align 8
  %50 = load i32, ptr @ett_rdmnet, align 4
  %51 = call ptr @proto_item_add_subtree(ptr noundef %49, i32 noundef %50)
  store ptr %51, ptr %12, align 8
  %52 = load i8, ptr %10, align 1, !range !9, !noundef !10
  %53 = trunc i8 %52 to i1
  br i1 %53, label %54, label %69

54:                                               ; preds = %48
  %55 = load ptr, ptr %12, align 8
  %56 = load i32, ptr @hf_rdmnet_preamble_size, align 4
  %57 = load ptr, ptr %6, align 8
  %58 = load i32, ptr %9, align 4
  %59 = call ptr @proto_tree_add_item(ptr noundef %55, i32 noundef %56, ptr noundef %57, i32 noundef %58, i32 noundef 2, i32 noundef 0)
  %60 = load i32, ptr %9, align 4
  %61 = add i32 %60, 2
  store i32 %61, ptr %9, align 4
  %62 = load ptr, ptr %12, align 8
  %63 = load i32, ptr @hf_rdmnet_postamble_size, align 4
  %64 = load ptr, ptr %6, align 8
  %65 = load i32, ptr %9, align 4
  %66 = call ptr @proto_tree_add_item(ptr noundef %62, i32 noundef %63, ptr noundef %64, i32 noundef %65, i32 noundef 2, i32 noundef 0)
  %67 = load i32, ptr %9, align 4
  %68 = add i32 %67, 2
  store i32 %68, ptr %9, align 4
  br label %69

69:                                               ; preds = %54, %48
  %70 = load ptr, ptr %12, align 8
  %71 = load i32, ptr @hf_rdmnet_packet_identifier, align 4
  %72 = load ptr, ptr %6, align 8
  %73 = load i32, ptr %9, align 4
  %74 = call ptr @proto_tree_add_item(ptr noundef %70, i32 noundef %71, ptr noundef %72, i32 noundef %73, i32 noundef 12, i32 noundef 2)
  %75 = load i32, ptr %9, align 4
  %76 = add i32 %75, 12
  store i32 %76, ptr %9, align 4
  store i32 0, ptr %15, align 4
  %77 = load i8, ptr %10, align 1, !range !9, !noundef !10
  %78 = trunc i8 %77 to i1
  br i1 %78, label %90, label %79

79:                                               ; preds = %69
  %80 = load ptr, ptr %12, align 8
  %81 = load i32, ptr @hf_rdmnet_tcp_length, align 4
  %82 = load ptr, ptr %6, align 8
  %83 = load i32, ptr %9, align 4
  %84 = call ptr @proto_tree_add_item(ptr noundef %80, i32 noundef %81, ptr noundef %82, i32 noundef %83, i32 noundef 4, i32 noundef 0)
  %85 = load ptr, ptr %6, align 8
  %86 = load i32, ptr %9, align 4
  %87 = call i32 @tvb_get_ntohl(ptr noundef %85, i32 noundef %86)
  store i32 %87, ptr %15, align 4
  %88 = load i32, ptr %9, align 4
  %89 = add i32 %88, 4
  store i32 %89, ptr %9, align 4
  br label %90

90:                                               ; preds = %79, %69
  %91 = load i8, ptr %10, align 1, !range !9, !noundef !10
  %92 = trunc i8 %91 to i1
  br i1 %92, label %93, label %99

93:                                               ; preds = %90
  %94 = load i32, ptr %9, align 4
  %95 = load ptr, ptr %6, align 8
  %96 = load i32, ptr %9, align 4
  %97 = call i32 @tvb_reported_length_remaining(ptr noundef %95, i32 noundef %96)
  %98 = add i32 %94, %97
  store i32 %98, ptr %14, align 4
  br label %103

99:                                               ; preds = %90
  %100 = load i32, ptr %9, align 4
  %101 = load i32, ptr %15, align 4
  %102 = add i32 %100, %101
  store i32 %102, ptr %14, align 4
  br label %103

103:                                              ; preds = %99, %93
  br label %104

104:                                              ; preds = %119, %103
  %105 = load i32, ptr %9, align 4
  %106 = load i32, ptr %14, align 4
  %107 = icmp ult i32 %105, %106
  br i1 %107, label %108, label %120

108:                                              ; preds = %104
  %109 = load i32, ptr %9, align 4
  store i32 %109, ptr %13, align 4
  %110 = load ptr, ptr %6, align 8
  %111 = load ptr, ptr %7, align 8
  %112 = load ptr, ptr %12, align 8
  %113 = load i32, ptr %9, align 4
  %114 = call i32 @dissect_acn_root_pdu(ptr noundef %110, ptr noundef %111, ptr noundef %112, i32 noundef %113, ptr noundef %16, i1 noundef zeroext false)
  store i32 %114, ptr %9, align 4
  %115 = load i32, ptr %9, align 4
  %116 = load i32, ptr %13, align 4
  %117 = icmp eq i32 %115, %116
  br i1 %117, label %118, label %119

118:                                              ; preds = %108
  br label %120

119:                                              ; preds = %108
  br label %104, !llvm.loop !67

120:                                              ; preds = %118, %104
  %121 = load i32, ptr %14, align 4
  call void @llvm.lifetime.end.p0(i64 20, ptr %16) #7
  call void @llvm.lifetime.end.p0(i64 4, ptr %15) #7
  call void @llvm.lifetime.end.p0(i64 4, ptr %14) #7
  call void @llvm.lifetime.end.p0(i64 4, ptr %13) #7
  call void @llvm.lifetime.end.p0(i64 8, ptr %12) #7
  call void @llvm.lifetime.end.p0(i64 8, ptr %11) #7
  ret i32 %121
}