; Function Attrs: null_pointer_is_valid sspstrong uwtable
define internal fastcc void @dissect_rdmnet(ptr noundef %0, ptr noundef %1, ptr noundef %2, i1 noundef zeroext %3) unnamed_addr #0 {
  %5 = alloca %struct.acn_pdu_offsets, align 4
  call void @llvm.lifetime.start.p0(i64 20, ptr nonnull %5) #7
  call void @llvm.memset.p0.i64(ptr noundef nonnull align 4 dereferenceable(20) %5, i8 0, i64 20, i1 false)
  %6 = getelementptr inbounds nuw i8, ptr %1, i64 8
  %7 = load ptr, ptr %6, align 8
  tail call void @col_set_str(ptr noundef %7, i32 noundef 35, ptr noundef nonnull @.str.445)
  %8 = load ptr, ptr %6, align 8
  %9 = getelementptr inbounds nuw i8, ptr %1, i64 284
  %10 = load i32, ptr %9, align 4
  %11 = getelementptr inbounds nuw i8, ptr %1, i64 288
  %12 = load i32, ptr %11, align 8
  tail call void (ptr, i32, ptr, ...) @col_add_fstr(ptr noundef %8, i32 noundef 25, ptr noundef nonnull @.str.1918, i32 noundef %10, i32 noundef %12)
  br i1 %3, label %25, label %13

13:                                               ; preds = %4
  %14 = tail call i32 @tvb_get_ntohl(ptr noundef %0, i32 noundef 12)
  %15 = add i32 %14, 16
  %16 = load i32, ptr @proto_rdmnet, align 4
  %17 = tail call ptr @proto_tree_add_item(ptr noundef %2, i32 noundef %16, ptr noundef %0, i32 noundef 0, i32 noundef %15, i32 noundef 0)
  %18 = load i32, ptr @ett_rdmnet, align 4
  %19 = tail call ptr @proto_item_add_subtree(ptr noundef %17, i32 noundef %18)
  %20 = load i32, ptr @hf_rdmnet_packet_identifier, align 4
  %21 = tail call ptr @proto_tree_add_item(ptr noundef %19, i32 noundef %20, ptr noundef %0, i32 noundef 0, i32 noundef 12, i32 noundef 2)
  %22 = load i32, ptr @hf_rdmnet_tcp_length, align 4
  %23 = tail call ptr @proto_tree_add_item(ptr noundef %19, i32 noundef %22, ptr noundef %0, i32 noundef 12, i32 noundef 4, i32 noundef 0)
  %24 = tail call i32 @tvb_get_ntohl(ptr noundef %0, i32 noundef 12)
  br label %37

25:                                               ; preds = %4
  %26 = load i32, ptr @proto_rdmnet, align 4
  %27 = tail call ptr @proto_tree_add_item(ptr noundef %2, i32 noundef %26, ptr noundef %0, i32 noundef 0, i32 noundef -1, i32 noundef 0)
  %28 = load i32, ptr @ett_rdmnet, align 4
  %29 = tail call ptr @proto_item_add_subtree(ptr noundef %27, i32 noundef %28)
  %30 = load i32, ptr @hf_rdmnet_preamble_size, align 4
  %31 = tail call ptr @proto_tree_add_item(ptr noundef %29, i32 noundef %30, ptr noundef %0, i32 noundef 0, i32 noundef 2, i32 noundef 0)
  %32 = load i32, ptr @hf_rdmnet_postamble_size, align 4
  %33 = tail call ptr @proto_tree_add_item(ptr noundef %29, i32 noundef %32, ptr noundef %0, i32 noundef 2, i32 noundef 2, i32 noundef 0)
  %34 = load i32, ptr @hf_rdmnet_packet_identifier, align 4
  %35 = tail call ptr @proto_tree_add_item(ptr noundef %29, i32 noundef %34, ptr noundef %0, i32 noundef 4, i32 noundef 12, i32 noundef 2)
  %36 = tail call i32 @tvb_reported_length_remaining(ptr noundef %0, i32 noundef 16)
  br label %37

37:                                               ; preds = %13, %25
  %38 = phi ptr [ %29, %25 ], [ %19, %13 ]
  %.pn = phi i32 [ %36, %25 ], [ %24, %13 ]
  %.049 = add i32 %.pn, 16
  br label %39

39:                                               ; preds = %41, %37
  %.2 = phi i32 [ 16, %37 ], [ %42, %41 ]
  %40 = icmp ult i32 %.2, %.049
  br i1 %40, label %41, label %44

41:                                               ; preds = %39
  %42 = call fastcc i32 @dissect_acn_root_pdu(ptr noundef %0, ptr noundef %1, ptr noundef %38, i32 noundef %.2, ptr noundef nonnull %5, i1 noundef zeroext false)
  %43 = icmp eq i32 %42, %.2
  br i1 %43, label %44, label %39, !llvm.loop !65

44:                                               ; preds = %41, %39
  call void @llvm.lifetime.end.p0(i64 20, ptr nonnull %5) #7
  ret void
}